target datalayout = "e-m:e-p270:32:32-p271:32:32-p272:64:64-i64:64-i128:128-f80:128-n8:16:32:64-S128"
target triple = "x86_64-pc-linux-gnu"

%"struct.duckdb_brotli::BrotliDecoderStateStruct" = type { i32, i32, %"struct.duckdb_brotli::BrotliBitReader", ptr, ptr, ptr, %union.anon, i64, i32, i32, i32, i32, i32, i32, [4 x i32], i32, i32, ptr, ptr, ptr, ptr, ptr, ptr, %"struct.duckdb_brotli::HuffmanTreeGroup", %"struct.duckdb_brotli::HuffmanTreeGroup", %"struct.duckdb_brotli::HuffmanTreeGroup", ptr, ptr, i32, i32, [3 x i64], i64, [3 x i64], [6 x i64], i64, i64, i64, ptr, ptr, i64, i64, i64, [65 x i32], i32, i32, i8, ptr, ptr, ptr, i64, i32, i32, i32, i32, i32, i32, i64, ptr, ptr, ptr, ptr, [8 x i32], %union.anon.0 }
%"struct.duckdb_brotli::BrotliBitReader" = type { i64, i64, ptr, ptr, ptr }
%union.anon = type { i64 }
%"struct.duckdb_brotli::HuffmanTreeGroup" = type { ptr, ptr, i16, i16, i16 }
%union.anon.0 = type { %"struct.duckdb_brotli::BrotliMetablockBodyArena" }
%"struct.duckdb_brotli::BrotliMetablockBodyArena" = type { [544 x i8], [544 x i64] }

; Function Attrs: mustprogress noinline nounwind uwtable
define internal noundef i32 @_ZN13duckdb_brotliL13SaveErrorCodeEPNS_24BrotliDecoderStateStructENS_22BrotliDecoderErrorCodeEm(ptr noundef %0, i32 noundef %1, i64 noundef %2) #6 {
  %4 = alloca i32, align 4
  %5 = alloca ptr, align 8
  %6 = alloca i32, align 4
  %7 = alloca i64, align 8
  store ptr %0, ptr %5, align 8, !tbaa !3
  store i32 %1, ptr %6, align 4, !tbaa !56
  store i64 %2, ptr %7, align 8, !tbaa !31
  %8 = load i32, ptr %6, align 4, !tbaa !56
  %9 = load ptr, ptr %5, align 8, !tbaa !3
  %10 = getelementptr inbounds nuw %"struct.duckdb_brotli::BrotliDecoderStateStruct", ptr %9, i32 0, i32 15
  store i32 %8, ptr %10, align 8, !tbaa !59
  %11 = load i64, ptr %7, align 8, !tbaa !31
  %12 = load ptr, ptr %5, align 8, !tbaa !3
  %13 = getelementptr inbounds nuw %"struct.duckdb_brotli::BrotliDecoderStateStruct", ptr %12, i32 0, i32 49
  %14 = load i64, ptr %13, align 8, !tbaa !99
  %15 = add i64 %14, %11
  store i64 %15, ptr %13, align 8, !tbaa !99
  %16 = load ptr, ptr %5, align 8, !tbaa !3
  %17 = getelementptr inbounds nuw %"struct.duckdb_brotli::BrotliDecoderStateStruct", ptr %16, i32 0, i32 7
  %18 = load i64, ptr %17, align 8, !tbaa !60
  %19 = icmp ne i64 %18, 0
  br i1 %19, label %20, label %33

20:                                               ; preds = %3
  %21 = load ptr, ptr %5, align 8, !tbaa !3
  %22 = getelementptr inbounds nuw %"struct.duckdb_brotli::BrotliDecoderStateStruct", ptr %21, i32 0, i32 2
  %23 = getelementptr inbounds nuw %"struct.duckdb_brotli::BrotliBitReader", ptr %22, i32 0, i32 2
  %24 = load ptr, ptr %23, align 8, !tbaa !100
  %25 = load ptr, ptr %5, align 8, !tbaa !3
  %26 = getelementptr inbounds nuw %"struct.duckdb_brotli::BrotliDecoderStateStruct", ptr %25, i32 0, i32 2
  %27 = getelementptr inbounds nuw %"struct.duckdb_brotli::BrotliBitReader", ptr %26, i32 0, i32 4
  %28 = load ptr, ptr %27, align 8, !tbaa !101
  %29 = icmp eq ptr %24, %28
  br i1 %29, label %30, label %33

30:                                               ; preds = %20
  %31 = load ptr, ptr %5, align 8, !tbaa !3
  %32 = getelementptr inbounds nuw %"struct.duckdb_brotli::BrotliDecoderStateStruct", ptr %31, i32 0, i32 7
  store i64 0, ptr %32, align 8, !tbaa !60
  br label %33

33:                                               ; preds = %30, %20, %3
  %34 = load i32, ptr %6, align 4, !tbaa !56
  switch i32 %34, label %38 [
    i32 1, label %35
    i32 2, label %36
    i32 3, label %37
  ]

35:                                               ; preds = %33
  store i32 1, ptr %4, align 4
  br label %39

36:                                               ; preds = %33
  store i32 2, ptr %4, align 4
  br label %39

37:                                               ; preds = %33
  store i32 3, ptr %4, align 4
  br label %39

38:                                               ; preds = %33
  store i32 0, ptr %4, align 4
  br label %39

39:                                               ; preds = %38, %37, %36, %35
  %40 = load i32, ptr %4, align 4
  ret i32 %40
}