; Function Attrs: mustprogress nofree noinline norecurse nosync nounwind willreturn memory(argmem: readwrite) uwtable
define internal fastcc noundef range(i32 0, 4) i32 @_ZN13duckdb_brotliL13SaveErrorCodeEPNS_24BrotliDecoderStateStructENS_22BrotliDecoderErrorCodeEm(ptr noundef captures(none) initializes((128, 132)) %0, i32 noundef %1, i64 noundef %2) unnamed_addr #6 {
  %4 = getelementptr inbounds nuw i8, ptr %0, i64 128
  store i32 %1, ptr %4, align 8, !tbaa !43
  %5 = getelementptr inbounds nuw i8, ptr %0, i64 744
  %6 = load i64, ptr %5, align 8, !tbaa !117
  %7 = add i64 %6, %2
  store i64 %7, ptr %5, align 8, !tbaa !117
  %8 = getelementptr inbounds nuw i8, ptr %0, i64 80
  %9 = load i64, ptr %8, align 8, !tbaa !44
  %.not = icmp eq i64 %9, 0
  br i1 %.not, label %17, label %10

10:                                               ; preds = %3
  %11 = getelementptr inbounds nuw i8, ptr %0, i64 24
  %12 = load ptr, ptr %11, align 8, !tbaa !118
  %13 = getelementptr inbounds nuw i8, ptr %0, i64 40
  %14 = load ptr, ptr %13, align 8, !tbaa !119
  %15 = icmp eq ptr %12, %14
  br i1 %15, label %16, label %17

16:                                               ; preds = %10
  store i64 0, ptr %8, align 8, !tbaa !44
  br label %17

17:                                               ; preds = %16, %10, %3
  %switch.tableidx = add i32 %1, -1
  %18 = icmp ult i32 %switch.tableidx, 3
  %.0 = select i1 %18, i32 %1, i32 0
  ret i32 %.0
}